target datalayout = "e-m:e-p270:32:32-p271:32:32-p272:64:64-i64:64-i128:128-f80:128-n8:16:32:64-S128"
target triple = "x86_64-pc-linux-gnu"

%struct.__ncnn_allocator_t = type { ptr, ptr, ptr }
%"class.ncnn::Mat" = type { ptr, ptr, i64, i32, ptr, i32, i32, i32, i32, i32, i64 }

; Function Attrs: mustprogress uwtable
define hidden ptr @ncnn_mat_reshape_4d(ptr noundef %0, i32 noundef %1, i32 noundef %2, i32 noundef %3, i32 noundef %4, ptr noundef %5) #1 personality ptr @__gxx_personality_v0 {
  %7 = alloca ptr, align 8
  %8 = alloca i32, align 4
  %9 = alloca i32, align 4
  %10 = alloca i32, align 4
  %11 = alloca i32, align 4
  %12 = alloca ptr, align 8
  %13 = alloca ptr, align 8
  %14 = alloca i32, align 4
  store ptr %0, ptr %7, align 8
  store i32 %1, ptr %8, align 4
  store i32 %2, ptr %9, align 4
  store i32 %3, ptr %10, align 4
  store i32 %4, ptr %11, align 4
  store ptr %5, ptr %12, align 8
  %15 = call noalias noundef nonnull ptr @_Znwm(i64 noundef 72) #13
  %16 = load ptr, ptr %7, align 8
  %17 = load i32, ptr %8, align 4
  %18 = load i32, ptr %9, align 4
  %19 = load i32, ptr %10, align 4
  %20 = load i32, ptr %11, align 4
  %21 = load ptr, ptr %12, align 8
  %22 = icmp ne ptr %21, null
  br i1 %22, label %23, label %27

23:                                               ; preds = %6
  %24 = load ptr, ptr %12, align 8
  %25 = getelementptr inbounds nuw %struct.__ncnn_allocator_t, ptr %24, i32 0, i32 0
  %26 = load ptr, ptr %25, align 8
  br label %28

27:                                               ; preds = %6
  br label %28

28:                                               ; preds = %27, %23
  %29 = phi ptr [ %26, %23 ], [ null, %27 ]
  invoke void @_ZNK4ncnn3Mat7reshapeEiiiiPNS_9AllocatorE(ptr dead_on_unwind writable sret(%"class.ncnn::Mat") align 8 %15, ptr noundef nonnull align 8 dereferenceable(72) %16, i32 noundef %17, i32 noundef %18, i32 noundef %19, i32 noundef %20, ptr noundef %29)
          to label %30 unwind label %31

30:                                               ; preds = %28
  ret ptr %15

31:                                               ; preds = %28
  %32 = landingpad { ptr, i32 }
          cleanup
  %33 = extractvalue { ptr, i32 } %32, 0
  store ptr %33, ptr %13, align 8
  %34 = extractvalue { ptr, i32 } %32, 1
  store i32 %34, ptr %14, align 4
  call void @_ZdlPvm(ptr noundef %15, i64 noundef 72) #14
  br label %35

35:                                               ; preds = %31
  %36 = load ptr, ptr %13, align 8
  %37 = load i32, ptr %14, align 4
  %38 = insertvalue { ptr, i32 } poison, ptr %36, 0
  %39 = insertvalue { ptr, i32 } %38, i32 %37, 1
  resume { ptr, i32 } %39
}