; Function Attrs: mustprogress uwtable
define hidden noundef nonnull ptr @ncnn_mat_reshape_4d(ptr noundef %0, i32 noundef %1, i32 noundef %2, i32 noundef %3, i32 noundef %4, ptr noundef readonly %5) local_unnamed_addr #1 personality ptr @__gxx_personality_v0 {
  %7 = tail call noalias noundef nonnull dereferenceable(72) ptr @_Znwm(i64 noundef 72) #24
  %.not = icmp eq ptr %5, null
  br i1 %.not, label %10, label %8

8:                                                ; preds = %6
  %9 = load ptr, ptr %5, align 8
  br label %10

10:                                               ; preds = %6, %8
  %11 = phi ptr [ %9, %8 ], [ null, %6 ]
  invoke void @_ZNK4ncnn3Mat7reshapeEiiiiPNS_9AllocatorE(ptr dead_on_unwind nonnull writable sret(%"class.ncnn::Mat") align 8 %7, ptr noundef nonnull align 8 dereferenceable(72) %0, i32 noundef %1, i32 noundef %2, i32 noundef %3, i32 noundef %4, ptr noundef %11)
          to label %12 unwind label %13

12:                                               ; preds = %10
  ret ptr %7

13:                                               ; preds = %10
  %14 = landingpad { ptr, i32 }
          cleanup
  tail call void @_ZdlPvm(ptr noundef nonnull %7, i64 noundef 72) #25
  resume { ptr, i32 } %14
}